target datalayout = "e-m:e-p270:32:32-p271:32:32-p272:64:64-i64:64-i128:128-f80:128-n8:16:32:64-S128"
target triple = "x86_64-unknown-linux-gnu"

%struct.NBDClientConnection = type { ptr, ptr, ptr, %struct.NBDExportInfo, i8, i8, %struct.QemuMutex, %struct.NBDExportInfo, ptr, ptr, ptr, i8, i8, ptr }
%struct.QemuMutex = type { %union.pthread_mutex_t, i8 }
%union.pthread_mutex_t = type { %struct.__pthread_mutex_s }
%struct.__pthread_mutex_s = type { i32, i32, i32, i32, i32, i16, i16, %struct.__pthread_internal_list }
%struct.__pthread_internal_list = type { ptr, ptr }
%struct.NBDExportInfo = type { i8, ptr, ptr, i32, i8, i64, i16, i32, i32, i32, i32, ptr, i32, ptr }

@.str.11 = private unnamed_addr constant [12 x i8] c"qio-channel\00", align 1
@.str.12 = private unnamed_addr constant [99 x i8] c"/home/dtcxzyw/WorkSpace/Projects/compilers/llvm-opt-benchmark/bench/qemu/qemu/include/io/channel.h\00", align 1
@__func__.QIO_CHANNEL = private unnamed_addr constant [12 x i8] c"QIO_CHANNEL\00", align 1

; Function Attrs: nounwind sspstrong uwtable
define internal ptr @QIO_CHANNEL(ptr noundef %obj) #0 {
entry:
  %obj.addr = alloca ptr, align 8
  store ptr %obj, ptr %obj.addr, align 8
  %0 = load ptr, ptr %obj.addr, align 8
  %call = call ptr @object_dynamic_cast_assert(ptr noundef %0, ptr noundef @.str.11, ptr noundef @.str.12, i32 noundef 30, ptr noundef @__func__.QIO_CHANNEL)
  ret ptr %call
}

; Function Attrs: nounwind sspstrong uwtable
define internal void @nbd_client_connection_do_free(ptr noundef %conn) #0 {
entry:
  %conn.addr = alloca ptr, align 8
  store ptr %conn, ptr %conn.addr, align 8
  %0 = load ptr, ptr %conn.addr, align 8
  %sioc = getelementptr inbounds %struct.NBDClientConnection, ptr %0, i32 0, i32 8
  %1 = load ptr, ptr %sioc, align 8
  %tobool = icmp ne ptr %1, null
  br i1 %tobool, label %if.then, label %if.end

if.then:                                          ; preds = %entry
  %2 = load ptr, ptr %conn.addr, align 8
  %sioc1 = getelementptr inbounds %struct.NBDClientConnection, ptr %2, i32 0, i32 8
  %3 = load ptr, ptr %sioc1, align 8
  %call = call ptr @QIO_CHANNEL(ptr noundef %3)
  %call2 = call i32 @qio_channel_close(ptr noundef %call, ptr noundef null)
  %4 = load ptr, ptr %conn.addr, align 8
  %sioc3 = getelementptr inbounds %struct.NBDClientConnection, ptr %4, i32 0, i32 8
  %5 = load ptr, ptr %sioc3, align 8
  call void @object_unref(ptr noundef %5)
  br label %if.end

if.end:                                           ; preds = %if.then, %entry
  %6 = load ptr, ptr %conn.addr, align 8
  %err = getelementptr inbounds %struct.NBDClientConnection, ptr %6, i32 0, i32 10
  %7 = load ptr, ptr %err, align 8
  call void @error_free(ptr noundef %7)
  %8 = load ptr, ptr %conn.addr, align 8
  %saddr = getelementptr inbounds %struct.NBDClientConnection, ptr %8, i32 0, i32 0
  %9 = load ptr, ptr %saddr, align 8
  call void @qapi_free_SocketAddress(ptr noundef %9)
  %10 = load ptr, ptr %conn.addr, align 8
  %tlshostname = getelementptr inbounds %struct.NBDClientConnection, ptr %10, i32 0, i32 2
  %11 = load ptr, ptr %tlshostname, align 8
  call void @g_free(ptr noundef %11)
  %12 = load ptr, ptr %conn.addr, align 8
  %tlscreds = getelementptr inbounds %struct.NBDClientConnection, ptr %12, i32 0, i32 1
  %13 = load ptr, ptr %tlscreds, align 8
  call void @object_unref(ptr noundef %13)
  %14 = load ptr, ptr %conn.addr, align 8
  %initial_info = getelementptr inbounds %struct.NBDClientConnection, ptr %14, i32 0, i32 3
  %x_dirty_bitmap = getelementptr inbounds %struct.NBDExportInfo, ptr %initial_info, i32 0, i32 1
  %15 = load ptr, ptr %x_dirty_bitmap, align 8
  call void @g_free(ptr noundef %15)
  %16 = load ptr, ptr %conn.addr, align 8
  %initial_info4 = getelementptr inbounds %struct.NBDClientConnection, ptr %16, i32 0, i32 3
  %name = getelementptr inbounds %struct.NBDExportInfo, ptr %initial_info4, i32 0, i32 2
  %17 = load ptr, ptr %name, align 8
  call void @g_free(ptr noundef %17)
  %18 = load ptr, ptr %conn.addr, align 8
  call void @g_free(ptr noundef %18)
  ret void
}