; Function Attrs: nounwind sspstrong uwtable
define internal fastcc void @nbd_client_connection_do_free(ptr noundef %conn) unnamed_addr #1 {
entry:
  %sioc = getelementptr inbounds nuw i8, ptr %conn, i64 256
  %0 = load ptr, ptr %sioc, align 8
  %tobool.not = icmp eq ptr %0, null
  br i1 %tobool.not, label %if.end, label %if.then

if.then:                                          ; preds = %entry
  %call.i = tail call ptr @object_dynamic_cast_assert(ptr noundef nonnull %0, ptr noundef nonnull @.str.11, ptr noundef nonnull @.str.12, i32 noundef 30, ptr noundef nonnull @__func__.QIO_CHANNEL) #10
  %call2 = tail call i32 @qio_channel_close(ptr noundef %call.i, ptr noundef null) #10
  %1 = load ptr, ptr %sioc, align 8
  tail call void @object_unref(ptr noundef %1) #10
  br label %if.end

if.end:                                           ; preds = %if.then, %entry
  %err = getelementptr inbounds nuw i8, ptr %conn, i64 272
  %2 = load ptr, ptr %err, align 8
  tail call void @error_free(ptr noundef %2) #10
  %3 = load ptr, ptr %conn, align 8
  tail call void @qapi_free_SocketAddress(ptr noundef %3) #10
  %tlshostname = getelementptr inbounds nuw i8, ptr %conn, i64 16
  %4 = load ptr, ptr %tlshostname, align 8
  tail call void @g_free(ptr noundef %4) #10
  %tlscreds = getelementptr inbounds nuw i8, ptr %conn, i64 8
  %5 = load ptr, ptr %tlscreds, align 8
  tail call void @object_unref(ptr noundef %5) #10
  %x_dirty_bitmap = getelementptr inbounds nuw i8, ptr %conn, i64 32
  %6 = load ptr, ptr %x_dirty_bitmap, align 8
  tail call void @g_free(ptr noundef %6) #10
  %name = getelementptr inbounds nuw i8, ptr %conn, i64 40
  %7 = load ptr, ptr %name, align 8
  tail call void @g_free(ptr noundef %7) #10
  tail call void @g_free(ptr noundef nonnull %conn) #10
  ret void
}